; Function Attrs: mustprogress nounwind uwtable
define dso_local noundef zeroext i1 @_ZN5vcpkggeERKNS_15LocalizedStringES2_(ptr noundef nonnull align 8 dereferenceable(32) %0, ptr noundef nonnull align 8 dereferenceable(32) %1) local_unnamed_addr #0 personality ptr @__gxx_personality_v0 {
  %3 = invoke noundef i32 @_ZNKSt7__cxx1112basic_stringIcSt11char_traitsIcESaIcEE7compareERKS4_(ptr noundef nonnull align 8 dereferenceable(32) %0, ptr noundef nonnull align 8 dereferenceable(32) %1)
          to label %_ZStgeIcSt11char_traitsIcESaIcEEbRKNSt7__cxx1112basic_stringIT_T0_T1_EESA_.exit unwind label %4

4:                                                ; preds = %2
  %5 = landingpad { ptr, i32 }
          catch ptr null
  %6 = extractvalue { ptr, i32 } %5, 0
  tail call void @__clang_call_terminate(ptr %6) #26
  unreachable

_ZStgeIcSt11char_traitsIcESaIcEEbRKNSt7__cxx1112basic_stringIT_T0_T1_EESA_.exit: ; preds = %2
  %7 = icmp sgt i32 %3, -1
  ret i1 %7
}